; Function Attrs: nofree norecurse nosync nounwind memory(argmem: readwrite) uwtable
define hidden i64 @_mi_commit_mask_next_run(ptr noundef readonly captures(none) %0, ptr noundef captures(none) %1) local_unnamed_addr #2 {
  %3 = load i64, ptr %1, align 8, !tbaa !3
  %4 = icmp ult i64 %3, 1024
  br i1 %4, label %.lr.ph.preheader, label %.thread

.lr.ph.preheader:                                 ; preds = %2
  %5 = and i64 %3, 63
  %6 = lshr i64 %3, 6
  br label %.lr.ph

.lr.ph:                                           ; preds = %.lr.ph.preheader, %16
  %.03049 = phi i64 [ 0, %16 ], [ %5, %.lr.ph.preheader ]
  %.03348 = phi i64 [ %17, %16 ], [ %6, %.lr.ph.preheader ]
  %7 = getelementptr inbounds nuw [16 x i64], ptr %0, i64 0, i64 %.03348
  %8 = load i64, ptr %7, align 8, !tbaa !3
  %9 = lshr i64 %8, %.03049
  %.not = icmp eq i64 %9, 0
  br i1 %.not, label %16, label %.preheader

.preheader:                                       ; preds = %.lr.ph
  %10 = and i64 %9, 1
  %11 = icmp eq i64 %10, 0
  br i1 %11, label %.lr.ph52, label %._crit_edge

.lr.ph52:                                         ; preds = %.preheader, %.lr.ph52
  %.251 = phi i64 [ %12, %.lr.ph52 ], [ %9, %.preheader ]
  %.23250 = phi i64 [ %13, %.lr.ph52 ], [ %.03049, %.preheader ]
  %12 = lshr exact i64 %.251, 1
  %13 = add i64 %.23250, 1
  %14 = and i64 %.251, 2
  %15 = icmp eq i64 %14, 0
  br i1 %15, label %.lr.ph52, label %._crit_edge, !llvm.loop !10

16:                                               ; preds = %.lr.ph
  %17 = add nuw nsw i64 %.03348, 1
  %exitcond.not = icmp eq i64 %17, 16
  br i1 %exitcond.not, label %.thread, label %.lr.ph, !llvm.loop !11

.thread:                                          ; preds = %16, %2
  store i64 1024, ptr %1, align 8, !tbaa !3
  br label %.loopexit

._crit_edge:                                      ; preds = %.lr.ph52, %.preheader
  %.232.lcssa = phi i64 [ %.03049, %.preheader ], [ %13, %.lr.ph52 ]
  %.2.lcssa = phi i64 [ %9, %.preheader ], [ %12, %.lr.ph52 ]
  %18 = shl nuw nsw i64 %.03348, 6
  %19 = add i64 %.232.lcssa, %18
  store i64 %19, ptr %1, align 8, !tbaa !3
  br label %20

20:                                               ; preds = %35, %._crit_edge
  %.134 = phi i64 [ %.03348, %._crit_edge ], [ %.235, %35 ]
  %.3 = phi i64 [ %.2.lcssa, %._crit_edge ], [ %.5, %35 ]
  %.0 = phi i64 [ 0, %._crit_edge ], [ %22, %35 ]
  br label %21

21:                                               ; preds = %21, %20
  %.4 = phi i64 [ %.3, %20 ], [ %23, %21 ]
  %.1 = phi i64 [ %.0, %20 ], [ %22, %21 ]
  %22 = add i64 %.1, 1
  %23 = lshr i64 %.4, 1
  %24 = and i64 %.4, 2
  %.not40 = icmp eq i64 %24, 0
  br i1 %.not40, label %25, label %21, !llvm.loop !12

25:                                               ; preds = %21
  %26 = add i64 %22, %.232.lcssa
  %27 = and i64 %26, 63
  %28 = icmp eq i64 %27, 0
  br i1 %28, label %29, label %35

29:                                               ; preds = %25
  %30 = icmp ugt i64 %.134, 14
  br i1 %30, label %.loopexit, label %31

31:                                               ; preds = %29
  %32 = add nuw nsw i64 %.134, 1
  %33 = getelementptr inbounds nuw [16 x i64], ptr %0, i64 0, i64 %32
  %34 = load i64, ptr %33, align 8, !tbaa !3
  br label %35

35:                                               ; preds = %25, %31
  %.235 = phi i64 [ %32, %31 ], [ %.134, %25 ]
  %.5 = phi i64 [ %34, %31 ], [ %23, %25 ]
  %36 = and i64 %.5, 1
  %.not41 = icmp eq i64 %36, 0
  br i1 %.not41, label %.loopexit, label %20, !llvm.loop !13

.loopexit:                                        ; preds = %35, %29, %.thread
  %.036 = phi i64 [ 0, %.thread ], [ %22, %29 ], [ %22, %35 ]
  ret i64 %.036
}